; Function Attrs: mustprogress uwtable
define hidden void @_ZN6Assimp3ASE6Parser16ParseLV4MeshLongERj(ptr noundef nonnull align 8 captures(none) dereferenceable(188) %0, ptr noundef nonnull writeonly align 4 captures(none) dereferenceable(4) %1) local_unnamed_addr #1 align 2 {
  %3 = alloca [2048 x i8], align 16
  %4 = getelementptr inbounds nuw i8, ptr %0, i64 8
  %5 = load ptr, ptr %4, align 8
  %6 = load ptr, ptr %0, align 8
  %7 = ptrtoint ptr %6 to i64
  %8 = ptrtoint ptr %5 to i64
  %9 = sub i64 %8, %7
  %scevgep.i.i = getelementptr i8, ptr %6, i64 %9
  br label %10

10:                                               ; preds = %13, %2
  %.0.i.i = phi ptr [ %6, %2 ], [ %14, %13 ]
  %11 = load i8, ptr %.0.i.i, align 1
  switch i8 %11, label %.critedge.i.i [
    i8 32, label %12
    i8 9, label %12
  ]

12:                                               ; preds = %10, %10
  %.not.i.i = icmp eq ptr %.0.i.i, %5
  br i1 %.not.i.i, label %.critedge.i.i, label %13

13:                                               ; preds = %12
  %14 = getelementptr inbounds nuw i8, ptr %.0.i.i, i64 1
  br label %10, !llvm.loop !34

.critedge.i.i:                                    ; preds = %12, %10
  %.0.lcssa.i.i = phi ptr [ %.0.i.i, %10 ], [ %scevgep.i.i, %12 ]
  store ptr %.0.lcssa.i.i, ptr %0, align 8
  %15 = load i8, ptr %.0.lcssa.i.i, align 1
  switch i8 %15, label %22 [
    i8 13, label %_ZN6Assimp10SkipSpacesIcEEbPPKT_S3_.exit
    i8 10, label %_ZN6Assimp10SkipSpacesIcEEbPPKT_S3_.exit
    i8 0, label %_ZN6Assimp10SkipSpacesIcEEbPPKT_S3_.exit
    i8 12, label %_ZN6Assimp10SkipSpacesIcEEbPPKT_S3_.exit
  ]

_ZN6Assimp10SkipSpacesIcEEbPPKT_S3_.exit:         ; preds = %.critedge.i.i, %.critedge.i.i, %.critedge.i.i, %.critedge.i.i
  call void @llvm.lifetime.start.p0(i64 2048, ptr nonnull %3) #28
  %16 = getelementptr inbounds nuw i8, ptr %0, i64 160
  %17 = load i32, ptr %16, align 8
  %18 = call i32 (ptr, i64, ptr, ...) @snprintf(ptr noundef nonnull dereferenceable(1) %3, i64 noundef 2048, ptr noundef nonnull @.str, i32 noundef %17, ptr noundef nonnull @.str.207) #28
  %19 = tail call noundef ptr @_ZN6Assimp13DefaultLogger3getEv()
  call void @_ZN6Assimp6Logger4warnIJRA2048_cEEEvDpOT_(ptr noundef nonnull align 8 dereferenceable(12) %19, ptr noundef nonnull align 1 dereferenceable(2048) %3)
  call void @llvm.lifetime.end.p0(i64 2048, ptr nonnull %3) #28
  store i32 0, ptr %1, align 4
  %20 = load i32, ptr %16, align 8
  %21 = add i32 %20, 1
  store i32 %21, ptr %16, align 8
  br label %31

22:                                               ; preds = %.critedge.i.i
  %23 = add i8 %15, -58
  %or.cond11.i = icmp ult i8 %23, -10
  br i1 %or.cond11.i, label %_ZN6Assimp9strtoul10EPKcPS1_.exit, label %.lr.ph.i

.lr.ph.i:                                         ; preds = %22, %.lr.ph.i
  %24 = phi i8 [ %29, %.lr.ph.i ], [ %15, %22 ]
  %.013.i = phi i32 [ %27, %.lr.ph.i ], [ 0, %22 ]
  %.0812.i = phi ptr [ %28, %.lr.ph.i ], [ %.0.lcssa.i.i, %22 ]
  %25 = mul i32 %.013.i, 10
  %narrow.i = add nsw i8 %24, -48
  %26 = zext nneg i8 %narrow.i to i32
  %27 = add i32 %25, %26
  %28 = getelementptr inbounds nuw i8, ptr %.0812.i, i64 1
  %29 = load i8, ptr %28, align 1
  %30 = add i8 %29, -58
  %or.cond.i = icmp ult i8 %30, -10
  br i1 %or.cond.i, label %_ZN6Assimp9strtoul10EPKcPS1_.exit, label %.lr.ph.i, !llvm.loop !35

_ZN6Assimp9strtoul10EPKcPS1_.exit:                ; preds = %.lr.ph.i, %22
  %.08.lcssa.i = phi ptr [ %.0.lcssa.i.i, %22 ], [ %28, %.lr.ph.i ]
  %.0.lcssa.i = phi i32 [ 0, %22 ], [ %27, %.lr.ph.i ]
  store ptr %.08.lcssa.i, ptr %0, align 8
  store i32 %.0.lcssa.i, ptr %1, align 4
  br label %31

31:                                               ; preds = %_ZN6Assimp9strtoul10EPKcPS1_.exit, %_ZN6Assimp10SkipSpacesIcEEbPPKT_S3_.exit
  ret void
}